; Function Attrs: mustprogress uwtable
define hidden void @_ZN3sls10smt_plugin8add_unitEN3sat7literalE(ptr noundef nonnull align 8 dereferenceable(3024) %0, i32 %1) local_unnamed_addr #3 align 2 personality ptr @__gxx_personality_v0 {
  %3 = tail call noundef zeroext i1 @_ZN3sls10smt_plugin9is_sharedEN3sat7literalE(ptr noundef nonnull align 8 dereferenceable(3024) %0, i32 %1)
  br i1 %3, label %4, label %27

4:                                                ; preds = %2
  %5 = getelementptr inbounds nuw i8, ptr %0, i64 2824
  %6 = tail call noundef i32 @pthread_mutex_lock(ptr noundef nonnull align 8 dereferenceable(40) %5) #23
  %.not.i.i = icmp eq i32 %6, 0
  br i1 %.not.i.i, label %_ZNSt10lock_guardISt5mutexEC2ERS0_.exit, label %7

7:                                                ; preds = %4
  tail call void @_ZSt20__throw_system_errori(i32 noundef %6) #27
  unreachable

_ZNSt10lock_guardISt5mutexEC2ERS0_.exit:          ; preds = %4
  %8 = getelementptr inbounds nuw i8, ptr %0, i64 2872
  %9 = load ptr, ptr %8, align 8, !tbaa !172
  %10 = icmp eq ptr %9, null
  br i1 %10, label %17, label %11

11:                                               ; preds = %_ZNSt10lock_guardISt5mutexEC2ERS0_.exit
  %12 = getelementptr inbounds i8, ptr %9, i64 -4
  %13 = load i32, ptr %12, align 4, !tbaa !173
  %14 = getelementptr inbounds i8, ptr %9, i64 -8
  %15 = load i32, ptr %14, align 4, !tbaa !173
  %16 = icmp eq i32 %13, %15
  br i1 %16, label %17, label %18

17:                                               ; preds = %11, %_ZNSt10lock_guardISt5mutexEC2ERS0_.exit
  invoke void @_ZN6vectorIN3sat7literalELb0EjE13expand_vectorEv(ptr noundef nonnull align 8 dereferenceable(8) %8)
          to label %.noexc unwind label %28

.noexc:                                           ; preds = %17
  %.pre.i = load ptr, ptr %8, align 8, !tbaa !172
  %.phi.trans.insert.i = getelementptr inbounds i8, ptr %.pre.i, i64 -4
  %.pre2.i = load i32, ptr %.phi.trans.insert.i, align 4, !tbaa !173
  br label %18

18:                                               ; preds = %.noexc, %11
  %19 = phi i32 [ %.pre2.i, %.noexc ], [ %13, %11 ]
  %20 = phi ptr [ %.pre.i, %.noexc ], [ %9, %11 ]
  %21 = getelementptr inbounds i8, ptr %20, i64 -4
  %22 = zext i32 %19 to i64
  %23 = getelementptr inbounds nuw %"class.sat::literal", ptr %20, i64 %22
  store i32 %1, ptr %23, align 4, !tbaa !173
  %24 = add i32 %19, 1
  store i32 %24, ptr %21, align 4, !tbaa !173
  %25 = getelementptr inbounds nuw i8, ptr %0, i64 2813
  store atomic i8 1, ptr %25 seq_cst, align 1
  %26 = tail call noundef i32 @pthread_mutex_unlock(ptr noundef nonnull align 8 dereferenceable(40) %5) #23
  br label %27

27:                                               ; preds = %2, %18
  ret void

28:                                               ; preds = %17
  %29 = landingpad { ptr, i32 }
          cleanup
  %30 = tail call noundef i32 @pthread_mutex_unlock(ptr noundef nonnull align 8 dereferenceable(40) %5) #23
  resume { ptr, i32 } %29
}